; Function Attrs: mustprogress uwtable
define noundef nonnull align 8 dereferenceable(16) ptr @_ZN18OpenImageIO_v2_6_012ImageBufAlgo15bluenoise_imageEv() local_unnamed_addr #5 personality ptr @__gxx_personality_v0 {
entry:
  %ref.tmp = alloca %"class.OpenImageIO_v2_6_0::ImageSpec", align 8
  %0 = load atomic i8, ptr @_ZGVZN18OpenImageIO_v2_6_012ImageBufAlgo15bluenoise_imageEvE3img acquire, align 8
  %guard.uninitialized = icmp eq i8 %0, 0
  br i1 %guard.uninitialized, label %init.check, label %init.end, !prof !62

init.check:                                       ; preds = %entry
  %1 = tail call i32 @__cxa_guard_acquire(ptr nonnull @_ZGVZN18OpenImageIO_v2_6_012ImageBufAlgo15bluenoise_imageEvE3img) #23
  %tobool.not = icmp eq i32 %1, 0
  br i1 %tobool.not, label %init.end, label %init

init:                                             ; preds = %init.check
  invoke fastcc void @_ZN18OpenImageIO_v2_6_012_GLOBAL__N_16bnspecEv(ptr noalias nonnull align 8 %ref.tmp)
          to label %invoke.cont unwind label %lpad

invoke.cont:                                      ; preds = %init
  invoke void @_ZN18OpenImageIO_v2_6_08ImageBufC1ERKNS_9ImageSpecEPvlll(ptr noundef nonnull align 8 dereferenceable(16) @_ZZN18OpenImageIO_v2_6_012ImageBufAlgo15bluenoise_imageEvE3img, ptr noundef nonnull align 8 dereferenceable(160) %ref.tmp, ptr noundef nonnull @_ZN18OpenImageIO_v2_6_03pvt15bluenoise_tableE, i64 noundef -9223372036854775808, i64 noundef -9223372036854775808, i64 noundef -9223372036854775808)
          to label %invoke.cont2 unwind label %lpad1

invoke.cont2:                                     ; preds = %invoke.cont
  call void @_ZN18OpenImageIO_v2_6_09ImageSpecD2Ev(ptr noundef nonnull align 8 dereferenceable(160) %ref.tmp) #23
  %2 = call i32 @__cxa_atexit(ptr nonnull @_ZN18OpenImageIO_v2_6_08ImageBufD1Ev, ptr nonnull @_ZZN18OpenImageIO_v2_6_012ImageBufAlgo15bluenoise_imageEvE3img, ptr nonnull @__dso_handle) #23
  call void @__cxa_guard_release(ptr nonnull @_ZGVZN18OpenImageIO_v2_6_012ImageBufAlgo15bluenoise_imageEvE3img) #23
  br label %init.end

init.end:                                         ; preds = %invoke.cont2, %init.check, %entry
  ret ptr @_ZZN18OpenImageIO_v2_6_012ImageBufAlgo15bluenoise_imageEvE3img

lpad:                                             ; preds = %init
  %3 = landingpad { ptr, i32 }
          cleanup
  br label %ehcleanup

lpad1:                                            ; preds = %invoke.cont
  %4 = landingpad { ptr, i32 }
          cleanup
  call void @_ZN18OpenImageIO_v2_6_09ImageSpecD2Ev(ptr noundef nonnull align 8 dereferenceable(160) %ref.tmp) #23
  br label %ehcleanup

ehcleanup:                                        ; preds = %lpad1, %lpad
  %.pn = phi { ptr, i32 } [ %4, %lpad1 ], [ %3, %lpad ]
  call void @__cxa_guard_abort(ptr nonnull @_ZGVZN18OpenImageIO_v2_6_012ImageBufAlgo15bluenoise_imageEvE3img) #23
  resume { ptr, i32 } %.pn
}